# SymbolsHelper-Confirmed: 5.1.0 amd64
libQt5V8.so.5 libqt5v8-5 #MINVER#
 _ZN2v810CpuProfile6DeleteEv@Base 5.0.2
 _ZN2v810ScriptData10PreCompileENS_6HandleINS_6StringEEE@Base 5.0.2
 _ZN2v810ScriptData10PreCompileEPKci@Base 5.0.2
 _ZN2v810ScriptData3NewEPKci@Base 5.0.2
 _ZN2v810StackTrace17CurrentStackTraceEiNS0_17StackTraceOptionsE@Base 5.0.2
 _ZN2v810StackTrace7AsArrayEv@Base 5.0.2
 _ZN2v810TypeSwitch3NewENS_6HandleINS_16FunctionTemplateEEE@Base 5.0.2
 _ZN2v810TypeSwitch3NewEiPNS_6HandleINS_16FunctionTemplateEEE@Base 5.0.2
 _ZN2v810TypeSwitch5matchENS_6HandleINS_5ValueEEE@Base 5.0.2
 _ZN2v811CpuProfiler10GetProfileEiNS_6HandleINS_5ValueEEE@Base 5.0.2
 _ZN2v811CpuProfiler11FindProfileEjNS_6HandleINS_5ValueEEE@Base 5.0.2
 _ZN2v811CpuProfiler13StopProfilingENS_6HandleINS_6StringEEENS1_INS_5ValueEEE@Base 5.0.2
 _ZN2v811CpuProfiler14StartProfilingENS_6HandleINS_6StringEEE@Base 5.0.2
 _ZN2v811CpuProfiler16GetProfilesCountEv@Base 5.0.2
 _ZN2v811CpuProfiler17DeleteAllProfilesEv@Base 5.0.2
 _ZN2v811HandleScope12CreateHandleEPNS_8internal10HeapObjectE@Base 5.0.2
 _ZN2v811HandleScope12CreateHandleEPNS_8internal6ObjectE@Base 5.0.2
 _ZN2v811HandleScope15NumberOfHandlesEv@Base 5.0.2
 _ZN2v811HandleScope5LeaveEv@Base 5.0.2
 _ZN2v811HandleScope8RawCloseEPPNS_8internal6ObjectE@Base 5.0.2
 _ZN2v811HandleScopeC1Ev@Base 5.0.2
 _ZN2v811HandleScopeC2Ev@Base 5.0.2
 _ZN2v811HandleScopeD1Ev@Base 5.0.2
 _ZN2v811HandleScopeD2Ev@Base 5.0.2
 _ZN2v812HeapProfiler11GetSnapshotEi@Base 5.0.2
 _ZN2v812HeapProfiler12FindSnapshotEj@Base 5.0.2
 _ZN2v812HeapProfiler12TakeSnapshotENS_6HandleINS_6StringEEENS_12HeapSnapshot4TypeEPNS_15ActivityControlE@Base 5.0.2
 _ZN2v812HeapProfiler17GetSnapshotsCountEv@Base 5.0.2
 _ZN2v812HeapProfiler18DefineWrapperClassEtPFPNS_18RetainedObjectInfoEtNS_6HandleINS_5ValueEEEE@Base 5.0.2
 _ZN2v812HeapProfiler18DeleteAllSnapshotsEv@Base 5.0.2
 _ZN2v812HeapProfiler19GetSnapshotObjectIdENS_6HandleINS_5ValueEEE@Base 5.0.2
 _ZN2v812HeapProfiler20PushHeapObjectsStatsEPNS_12OutputStreamE@Base 5.0.2
 _ZN2v812HeapProfiler23StopHeapObjectsTrackingEv@Base 5.0.2
 _ZN2v812HeapProfiler24GetPersistentHandleCountEv@Base 5.0.2
 _ZN2v812HeapProfiler24StartHeapObjectsTrackingEv@Base 5.0.2
 _ZN2v812HeapProfiler27GetMemorySizeUsedByProfilerEv@Base 5.1.0
 _ZN2v812HeapSnapshot6DeleteEv@Base 5.0.2
 _ZN2v812NumberObject3NewEd@Base 5.0.2
 _ZN2v812NumberObject9CheckCastEPNS_5ValueE@Base 5.0.2
 _ZN2v812StringObject3NewENS_6HandleINS_6StringEEE@Base 5.0.2
 _ZN2v812StringObject9CheckCastEPNS_5ValueE@Base 5.0.2
 _ZN2v813BooleanObject3NewEb@Base 5.0.2
 _ZN2v813BooleanObject9CheckCastEPNS_5ValueE@Base 5.0.2
 _ZN2v814HeapStatisticsC1Ev@Base 5.0.2
 _ZN2v814HeapStatisticsC2Ev@Base 5.0.2
 _ZN2v814ObjectTemplate11NewInstanceEv@Base 5.0.2
 (optional=templinst)_ZN2v814ObjectTemplate11SetAccessorENS_6HandleINS_6StringEEEPFNS1_INS_5ValueEEENS_5LocalIS2_EERKNS_12AccessorInfoEEPFvS7_NS6_IS4_EESA_ES5_NS_13AccessControlENS_17PropertyAttributeENS1_INS_17AccessorSignatureEEE@Base 5.1.0
 _ZN2v814ObjectTemplate18InternalFieldCountEv@Base 5.0.2
 _ZN2v814ObjectTemplate18MarkAsUndetectableEv@Base 5.0.2
 _ZN2v814ObjectTemplate19HasExternalResourceEv@Base 5.0.2
 _ZN2v814ObjectTemplate21SetInternalFieldCountEi@Base 5.0.2
 _ZN2v814ObjectTemplate22SetHasExternalResourceEb@Base 5.0.2
 (optional=templinst)_ZN2v814ObjectTemplate23SetAccessCheckCallbacksEPFbNS_5LocalINS_6ObjectEEENS1_INS_5ValueEEENS_10AccessTypeES5_EPFbS3_jS6_S5_ENS_6HandleIS4_EEb@Base 5.0.2
 (optional=templinst)_ZN2v814ObjectTemplate23SetNamedPropertyHandlerEPFNS_6HandleINS_5ValueEEENS_5LocalINS_6StringEEERKNS_12AccessorInfoEEPFS3_S6_NS4_IS2_EES9_EPFNS1_INS_7IntegerEEES6_S9_EPFNS1_INS_7BooleanEEES6_S9_EPFNS1_INS_5ArrayEEES9_ES3_@Base 5.0.2
 (optional=templinst)_ZN2v814ObjectTemplate24SetCallAsFunctionHandlerEPFNS_6HandleINS_5ValueEEERKNS_9ArgumentsEES3_@Base 5.0.2
 (optional=templinst)_ZN2v814ObjectTemplate25SetIndexedPropertyHandlerEPFNS_6HandleINS_5ValueEEEjRKNS_12AccessorInfoEEPFS3_jNS_5LocalIS2_EES6_EPFNS1_INS_7IntegerEEEjS6_EPFNS1_INS_7BooleanEEEjS6_EPFNS1_INS_5ArrayEEES6_ES3_@Base 5.0.2
 (optional=templinst)_ZN2v814ObjectTemplate26SetFallbackPropertyHandlerEPFNS_6HandleINS_5ValueEEENS_5LocalINS_6StringEEERKNS_12AccessorInfoEEPFS3_S6_NS4_IS2_EES9_EPFNS1_INS_7IntegerEEES6_S9_EPFNS1_INS_7BooleanEEES6_S9_EPFNS1_INS_5ArrayEEES9_ES3_@Base 5.0.2
 _ZN2v814ObjectTemplate29MarkAsUseUserObjectComparisonEv@Base 5.0.2
 _ZN2v814ObjectTemplate3NewENS_6HandleINS_16FunctionTemplateEEE@Base 5.0.2
 _ZN2v814ObjectTemplate3NewEv@Base 5.0.2
 _ZN2v814ThrowExceptionENS_6HandleINS_5ValueEEE@Base 5.0.2
 _ZN2v816FunctionTemplate11GetFunctionEv@Base 5.0.2
 _ZN2v816FunctionTemplate11HasInstanceENS_6HandleINS_5ValueEEE@Base 5.0.2
 _ZN2v816FunctionTemplate12SetClassNameENS_6HandleINS_6StringEEE@Base 5.0.2
 (optional=templinst)_ZN2v816FunctionTemplate14SetCallHandlerEPFNS_6HandleINS_5ValueEEERKNS_9ArgumentsEES3_@Base 5.0.2
 _ZN2v816FunctionTemplate16InstanceTemplateEv@Base 5.0.2
 _ZN2v816FunctionTemplate17PrototypeTemplateEv@Base 5.0.2
 _ZN2v816FunctionTemplate17ReadOnlyPrototypeEv@Base 5.0.2
 _ZN2v816FunctionTemplate18SetHiddenPrototypeEb@Base 5.0.2
 (optional=templinst)_ZN2v816FunctionTemplate27AddInstancePropertyAccessorENS_6HandleINS_6StringEEEPFNS1_INS_5ValueEEENS_5LocalIS2_EERKNS_12AccessorInfoEEPFvS7_NS6_IS4_EESA_ES5_NS_13AccessControlENS_17PropertyAttributeENS1_INS_17AccessorSignatureEEE@Base 5.1.0
 (optional=templinst)_ZN2v816FunctionTemplate31SetNamedInstancePropertyHandlerEPFNS_6HandleINS_5ValueEEENS_5LocalINS_6StringEEERKNS_12AccessorInfoEEPFS3_S6_NS4_IS2_EES9_EPFNS1_INS_7IntegerEEES6_S9_EPFNS1_INS_7BooleanEEES6_S9_EPFNS1_INS_5ArrayEEES9_EbS3_@Base 5.0.2
 (optional=templinst)_ZN2v816FunctionTemplate32SetInstanceCallAsFunctionHandlerEPFNS_6HandleINS_5ValueEEERKNS_9ArgumentsEES3_@Base 5.0.2
 (optional=templinst)_ZN2v816FunctionTemplate33SetIndexedInstancePropertyHandlerEPFNS_6HandleINS_5ValueEEEjRKNS_12AccessorInfoEEPFS3_jNS_5LocalIS2_EES6_EPFNS1_INS_7IntegerEEEjS6_EPFNS1_INS_7BooleanEEEjS6_EPFNS1_INS_5ArrayEEES6_ES3_@Base 5.0.2
 (optional=templinst)_ZN2v816FunctionTemplate3NewEPFNS_6HandleINS_5ValueEEERKNS_9ArgumentsEES3_NS1_INS_9SignatureEEE@Base 5.0.2
 _ZN2v816FunctionTemplate7InheritENS_6HandleIS0_EE@Base 5.0.2
 _ZN2v817AccessorSignature3NewENS_6HandleINS_16FunctionTemplateEEE@Base 5.1.0
 _ZN2v817RegisterExtensionEPNS_9ExtensionE@Base 5.0.2
 _ZN2v819ResourceConstraintsC1Ev@Base 5.0.2
 _ZN2v819ResourceConstraintsC2Ev@Base 5.0.2
 _ZN2v822SetResourceConstraintsEPNS_19ResourceConstraintsE@Base 5.0.2
 _ZN2v823StartupDataDecompressor10DecompressEv@Base 5.0.2
 _ZN2v823StartupDataDecompressorC1Ev@Base 5.0.2
 _ZN2v823StartupDataDecompressorC2Ev@Base 5.0.2
 _ZN2v823StartupDataDecompressorD0Ev@Base 5.0.2
 _ZN2v823StartupDataDecompressorD1Ev@Base 5.0.2
 _ZN2v823StartupDataDecompressorD2Ev@Base 5.0.2
 _ZN2v82V810GetVersionEv@Base 5.0.2
 _ZN2v82V810InitializeEv@Base 5.0.2
 _ZN2v82V812IsGlobalWeakEPPNS_8internal6ObjectE@Base 5.0.2
 _ZN2v82V813DisposeGlobalEPNS_8internal7IsolateEPPNS1_6ObjectE@Base 5.1.0
 _ZN2v82V813DisposeGlobalEPPNS_8internal6ObjectE@Base 5.0.2
 _ZN2v82V813PauseProfilerEv@Base 5.0.2
 (subst)_ZN2v82V814AddObjectGroupEPNS_10PersistentINS_5ValueEEE{size_t}PNS_18RetainedObjectInfoE@Base 5.0.2
 _ZN2v82V814ResumeProfilerEv@Base 5.0.2
 _ZN2v82V815MarkIndependentEPNS_8internal7IsolateEPPNS1_6ObjectE@Base 5.1.0
 _ZN2v82V815MarkIndependentEPPNS_8internal6ObjectE@Base 5.0.2
 _ZN2v82V816IdleNotificationEi@Base 5.0.2
 _ZN2v82V816IsProfilerPausedEv@Base 5.0.2
 (subst)_ZN2v82V816SetEntropySourceEPFbPh{size_t}E@Base 5.0.2
 _ZN2v82V817GetHeapStatisticsEPNS_14HeapStatisticsE@Base 5.0.2
 _ZN2v82V817GetWrapperClassIdEPPNS_8internal6ObjectE@Base 5.1.0
 _ZN2v82V817IsGlobalNearDeathEPPNS_8internal6ObjectE@Base 5.0.2
 _ZN2v82V817SetWrapperClassIdEPPNS_8internal6ObjectEt@Base 5.0.2
 _ZN2v82V818AddMessageListenerEPFvNS_6HandleINS_7MessageEEENS1_INS_5ValueEEEE@Base 5.1.0
 _ZN2v82V818GetCurrentThreadIdEv@Base 5.0.2
 _ZN2v82V818GlobalizeReferenceEPPNS_8internal6ObjectE@Base 5.0.2
 _ZN2v82V818SetCounterFunctionEPFPiPKcE@Base 5.0.2
 _ZN2v82V818SetFlagsFromStringEPKci@Base 5.0.2
 _ZN2v82V818TerminateExecutionEPNS_7IsolateE@Base 5.0.2
 _ZN2v82V818TerminateExecutionEi@Base 5.0.2
 _ZN2v82V819IsGlobalIndependentEPNS_8internal7IsolateEPPNS1_6ObjectE@Base 5.1.0
 _ZN2v82V819IsGlobalIndependentEPPNS_8internal6ObjectE@Base 5.1.0
 _ZN2v82V820SetFatalErrorHandlerEPFvPKcS2_E@Base 5.0.2
 _ZN2v82V820SetFunctionEntryHookEPFvmmE@Base 5.1.0
 _ZN2v82V821AddGCEpilogueCallbackEPFvNS_6GCTypeENS_15GCCallbackFlagsEES1_@Base 5.0.2
 _ZN2v82V821AddGCPrologueCallbackEPFvNS_6GCTypeENS_15GCCallbackFlagsEES1_@Base 5.0.2
 (subst)_ZN2v82V821AddImplicitReferencesENS_10PersistentINS_6ObjectEEEPNS1_INS_5ValueEEE{size_t}@Base 5.0.2
 _ZN2v82V821LowMemoryNotificationEv@Base 5.0.2
 _ZN2v82V822IsExecutionTerminatingEPNS_7IsolateE@Base 5.0.2
 _ZN2v82V822MarkPartiallyDependentEPNS_8internal7IsolateEPPNS1_6ObjectE@Base 5.1.0
 _ZN2v82V822MarkPartiallyDependentEPPNS_8internal6ObjectE@Base 5.1.0
 _ZN2v82V822RemoveMessageListenersEPFvNS_6HandleINS_7MessageEEENS1_INS_5ValueEEEE@Base 5.0.2
 _ZN2v82V822SetJitCodeEventHandlerENS_19JitCodeEventOptionsEPFvPKNS_12JitCodeEventEE@Base 5.1.0
 _ZN2v82V822VisitExternalResourcesEPNS_23ExternalResourceVisitorE@Base 5.0.2
 _ZN2v82V823SetFlagsFromCommandLineEPiPPcb@Base 5.0.2
 _ZN2v82V824AddCallCompletedCallbackEPFvvE@Base 5.0.2
 _ZN2v82V824EnableSlidingStateWindowEv@Base 5.0.2
 _ZN2v82V824GetCompressedStartupDataEPNS_11StartupDataE@Base 5.0.2
 _ZN2v82V824RemoveGCEpilogueCallbackEPFvNS_6GCTypeENS_15GCCallbackFlagsEE@Base 5.0.2
 _ZN2v82V824RemoveGCPrologueCallbackEPFvNS_6GCTypeENS_15GCCallbackFlagsEE@Base 5.0.2
 _ZN2v82V824VisitHandlesWithClassIdsEPNS_23PersistentHandleVisitorE@Base 5.1.0
 _ZN2v82V826IgnoreOutOfMemoryExceptionEv@Base 5.0.2
 (subst)_ZN2v82V826SetCreateHistogramFunctionEPFPvPKcii{size_t}E@Base 5.0.2
 _ZN2v82V826SetDecompressedStartupDataEPNS_11StartupDataE@Base 5.0.2
 _ZN2v82V827AddMemoryAllocationCallbackEPFvNS_11ObjectSpaceENS_16AllocationActionEiES1_S2_@Base 5.0.2
 _ZN2v82V827ContextDisposedNotificationEv@Base 5.0.2
 _ZN2v82V827RemoveCallCompletedCallbackEPFvvE@Base 5.0.2
 _ZN2v82V827SetGlobalGCEpilogueCallbackEPFvvE@Base 5.0.2
 _ZN2v82V827SetGlobalGCPrologueCallbackEPFvvE@Base 5.0.2
 _ZN2v82V829GetCompressedStartupDataCountEv@Base 5.0.2
 _ZN2v82V829SetAddHistogramSampleFunctionEPFvPviE@Base 5.0.2
 _ZN2v82V830RemoveMemoryAllocationCallbackEPFvNS_11ObjectSpaceENS_16AllocationActionEiE@Base 5.0.2
 (subst)_ZN2v82V832SetReturnAddressLocationResolverEPF{size_t}{size_t}E@Base 5.0.2
 _ZN2v82V833GetCompressedStartupDataAlgorithmEv@Base 5.0.2
 _ZN2v82V836SetFailedAccessCheckCallbackFunctionEPFvNS_5LocalINS_6ObjectEEENS_10AccessTypeENS1_INS_5ValueEEEE@Base 5.0.2
 (subst)_ZN2v82V837AdjustAmountOfExternalAllocatedMemoryE{ssize_t}@Base 5.0.2
 _ZN2v82V839SetUserObjectComparisonCallbackFunctionEPFbNS_5LocalINS_6ObjectEEES3_E@Base 5.0.2
 _ZN2v82V841SetAllowCodeGenerationFromStringsCallbackEPFbNS_5LocalINS_7ContextEEEE@Base 5.0.2
 _ZN2v82V841SetCaptureStackTraceForUncaughtExceptionsEbiNS_10StackTrace17StackTraceOptionsE@Base 5.0.2
 _ZN2v82V86IsDeadEv@Base 5.0.2
 _ZN2v82V87DisposeEv@Base 5.0.2
 _ZN2v82V88MakeWeakEPPNS_8internal6ObjectEPvPFvNS_10PersistentINS_5ValueEEES5_E@Base 5.0.2
 _ZN2v82V89ClearWeakEPPNS_8internal6ObjectE@Base 5.0.2
 _ZN2v831ExternalAsciiStringResourceImplD0Ev@Base 5.0.2
 _ZN2v831ExternalAsciiStringResourceImplD1Ev@Base 5.0.2
 _ZN2v831ExternalAsciiStringResourceImplD2Ev@Base 5.0.2
 _ZN2v84Date39DateTimeConfigurationChangeNotificationEv@Base 5.0.2
 _ZN2v84Date3NewEd@Base 5.0.2
 _ZN2v84Date9CheckCastEPNS_5ValueE@Base 5.0.2
 _ZN2v84NullEv@Base 5.0.2
 _ZN2v84TrueEv@Base 5.0.2
 _ZN2v85Array14CloneElementAtEj@Base 5.0.2
 _ZN2v85Array3NewEi@Base 5.0.2
 _ZN2v85Array9CheckCastEPNS_5ValueE@Base 5.0.2
 _ZN2v85Debug10DebugBreakEPNS_7IsolateE@Base 5.0.2
 _ZN2v85Debug11EnableAgentEPKcib@Base 5.0.2
 _ZN2v85Debug11SendCommandEPKtiPNS0_10ClientDataEPNS_7IsolateE@Base 5.0.2
 _ZN2v85Debug12DisableAgentEv@Base 5.0.2
 _ZN2v85Debug15GetDebugContextEv@Base 5.0.2
 _ZN2v85Debug16CancelDebugBreakEPNS_7IsolateE@Base 5.0.2
 _ZN2v85Debug17SetMessageHandlerEPFvPKtiPNS0_10ClientDataEEb@Base 5.0.2
 _ZN2v85Debug18SetLiveEditEnabledEbPNS_7IsolateE@Base 5.1.0
 _ZN2v85Debug18SetMessageHandler2EPFvRKNS0_7MessageEE@Base 5.0.2
 _ZN2v85Debug20DebugBreakForCommandEPNS0_10ClientDataEPNS_7IsolateE@Base 5.0.2
 _ZN2v85Debug20ProcessDebugMessagesEv@Base 5.0.2
 _ZN2v85Debug21SetDebugEventListenerENS_6HandleINS_6ObjectEEENS1_INS_5ValueEEE@Base 5.0.2
 _ZN2v85Debug21SetDebugEventListenerEPFvNS_10DebugEventENS_6HandleINS_6ObjectEEES4_NS2_INS_5ValueEEEES6_@Base 5.0.2
 _ZN2v85Debug22SetDebugEventListener2EPFvRKNS0_12EventDetailsEENS_6HandleINS_5ValueEEE@Base 5.0.2
 _ZN2v85Debug22SetHostDispatchHandlerEPFvvEi@Base 5.0.2
 _ZN2v85Debug30SetDebugMessageDispatchHandlerEPFvvEb@Base 5.0.2
 _ZN2v85Debug4CallENS_6HandleINS_8FunctionEEENS1_INS_5ValueEEE@Base 5.0.2
 _ZN2v85Debug9GetMirrorENS_6HandleINS_5ValueEEE@Base 5.0.2
 _ZN2v85FalseEv@Base 5.0.2
 _ZN2v86Locker14StopPreemptionEv@Base 5.0.2
 _ZN2v86Locker15StartPreemptionEi@Base 5.0.2
 _ZN2v86Locker7active_E@Base 5.0.2
 _ZN2v86Locker8IsActiveEv@Base 5.0.2
 _ZN2v86Locker8IsLockedEPNS_7IsolateE@Base 5.0.2
 _ZN2v86LockerC1EPNS_7IsolateE@Base 5.0.2
 _ZN2v86LockerC2EPNS_7IsolateE@Base 5.0.2
 _ZN2v86LockerD1Ev@Base 5.0.2
 _ZN2v86LockerD2Ev@Base 5.0.2
 _ZN2v86Number3NewEd@Base 5.0.2
 _ZN2v86Number9CheckCastEPNS_5ValueE@Base 5.0.2
 _ZN2v86Object10IsCallableEv@Base 5.0.2
 _ZN2v86Object11ForceDeleteENS_6HandleINS_5ValueEEE@Base 5.0.2
 (optional=templinst)_ZN2v86Object11SetAccessorENS_6HandleINS_6StringEEEPFNS1_INS_5ValueEEENS_5LocalIS2_EERKNS_12AccessorInfoEEPFvS7_NS6_IS4_EESA_ES5_NS_13AccessControlENS_17PropertyAttributeE@Base 5.0.2
 _ZN2v86Object12GetPrototypeEv@Base 5.0.2
 _ZN2v86Object12SetPrototypeENS_6HandleINS_5ValueEEE@Base 5.0.2
 _ZN2v86Object14CallAsFunctionENS_6HandleIS0_EEiPNS1_INS_5ValueEEE@Base 5.0.2
 _ZN2v86Object14GetConstructorEv@Base 5.1.0
 _ZN2v86Object14GetHiddenValueENS_6HandleINS_6StringEEE@Base 5.0.2
 _ZN2v86Object14HasOwnPropertyENS_6HandleINS_6StringEEE@Base 5.0.2
 _ZN2v86Object14SetHiddenValueENS_6HandleINS_6StringEEENS1_INS_5ValueEEE@Base 5.0.2
 _ZN2v86Object15CreationContextEv@Base 5.0.2
 _ZN2v86Object15GetIdentityHashEv@Base 5.0.2
 _ZN2v86Object16GetPropertyNamesEv@Base 5.0.2
 _ZN2v86Object16SetInternalFieldEiNS_6HandleINS_5ValueEEE@Base 5.0.2
 _ZN2v86Object17CallAsConstructorEiPNS_6HandleINS_5ValueEEE@Base 5.0.2
 _ZN2v86Object17DeleteHiddenValueENS_6HandleINS_6StringEEE@Base 5.0.2
 _ZN2v86Object17TurnOnAccessCheckEv@Base 5.0.2
 _ZN2v86Object18GetConstructorNameEv@Base 5.0.2
 _ZN2v86Object18InternalFieldCountEv@Base 5.0.2
 _ZN2v86Object19GetExternalResourceEv@Base 5.0.2
 _ZN2v86Object19GetOwnPropertyNamesEv@Base 5.0.2
 _ZN2v86Object19ObjectProtoToStringEv@Base 5.0.2
 _ZN2v86Object19SetExternalResourceEPNS0_16ExternalResourceE@Base 5.0.2
 _ZN2v86Object20GetRealNamedPropertyENS_6HandleINS_6StringEEE@Base 5.0.2
 _ZN2v86Object20HasRealNamedPropertyENS_6HandleINS_6StringEEE@Base 5.0.2
 _ZN2v86Object21GetPropertyAttributesENS_6HandleINS_5ValueEEE@Base 5.0.2
 _ZN2v86Object22HasRealIndexedPropertyEj@Base 5.0.2
 _ZN2v86Object23CheckedGetInternalFieldEi@Base 5.0.2
 _ZN2v86Object25HasNamedLookupInterceptorEv@Base 5.0.2
 _ZN2v86Object25SetPointerInInternalFieldEiPv@Base 5.0.2
 _ZN2v86Object27HasIndexedLookupInterceptorEv@Base 5.0.2
 _ZN2v86Object28FindInstanceInPrototypeChainENS_6HandleINS_16FunctionTemplateEEE@Base 5.0.2
 _ZN2v86Object28HasRealNamedCallbackPropertyENS_6HandleINS_6StringEEE@Base 5.0.2
 _ZN2v86Object29GetIndexedPropertiesPixelDataEv@Base 5.0.2
 _ZN2v86Object31HasIndexedPropertiesInPixelDataEv@Base 5.0.2
 _ZN2v86Object31SetIndexedPropertiesToPixelDataEPhi@Base 5.0.2
 _ZN2v86Object31SlowGetPointerFromInternalFieldEi@Base 5.0.2
 _ZN2v86Object35GetIndexedPropertiesPixelDataLengthEv@Base 5.0.2
 _ZN2v86Object36GetRealNamedPropertyInPrototypeChainENS_6HandleINS_6StringEEE@Base 5.0.2
 _ZN2v86Object37GetIndexedPropertiesExternalArrayDataEv@Base 5.0.2
 _ZN2v86Object39HasIndexedPropertiesInExternalArrayDataEv@Base 5.0.2
 _ZN2v86Object39SetIndexedPropertiesToExternalArrayDataEPvNS_17ExternalArrayTypeEi@Base 5.0.2
 _ZN2v86Object3GetENS_6HandleINS_5ValueEEE@Base 5.0.2
 _ZN2v86Object3GetEj@Base 5.0.2
 _ZN2v86Object3HasENS_6HandleINS_6StringEEE@Base 5.0.2
 _ZN2v86Object3HasEj@Base 5.0.2
 _ZN2v86Object3NewEv@Base 5.0.2
 _ZN2v86Object3SetENS_6HandleINS_5ValueEEES3_NS_17PropertyAttributeE@Base 5.0.2
 _ZN2v86Object3SetEjNS_6HandleINS_5ValueEEE@Base 5.0.2
 _ZN2v86Object41GetIndexedPropertiesExternalArrayDataTypeEv@Base 5.0.2
 _ZN2v86Object43GetIndexedPropertiesExternalArrayDataLengthEv@Base 5.0.2
 _ZN2v86Object5CloneEv@Base 5.0.2
 _ZN2v86Object6DeleteENS_6HandleINS_6StringEEE@Base 5.0.2
 _ZN2v86Object6DeleteEj@Base 5.0.2
 _ZN2v86Object7IsDirtyEv@Base 5.0.2
 _ZN2v86Object8ForceSetENS_6HandleINS_5ValueEEES3_NS_17PropertyAttributeE@Base 5.0.2
 _ZN2v86Object9CheckCastEPNS_5ValueE@Base 5.0.2
 _ZN2v86RegExp3NewENS_6HandleINS_6StringEEENS0_5FlagsE@Base 5.0.2
 _ZN2v86RegExp9CheckCastEPNS_5ValueE@Base 5.0.2
 _ZN2v86Script2IdEv@Base 5.0.2
 _ZN2v86Script3NewENS_6HandleINS_6StringEEENS1_INS_5ValueEEENS0_12CompileFlagsE@Base 5.0.2
 _ZN2v86Script3NewENS_6HandleINS_6StringEEEPNS_12ScriptOriginEPNS_10ScriptDataES3_NS0_12CompileFlagsE@Base 5.0.2
 _ZN2v86Script3RunENS_6HandleINS_6ObjectEEE@Base 5.0.2
 _ZN2v86Script3RunEv@Base 5.0.2
 _ZN2v86Script7CompileENS_6HandleINS_6StringEEENS1_INS_5ValueEEES3_NS0_12CompileFlagsE@Base 5.0.2
 _ZN2v86Script7CompileENS_6HandleINS_6StringEEEPNS_12ScriptOriginEPNS_10ScriptDataES3_NS0_12CompileFlagsE@Base 5.0.2
 _ZN2v86Script7SetDataENS_6HandleINS_6StringEEE@Base 5.0.2
 _ZN2v86String10AsciiValueC1ENS_6HandleINS_5ValueEEE@Base 5.0.2
 _ZN2v86String10AsciiValueC2ENS_6HandleINS_5ValueEEE@Base 5.0.2
 _ZN2v86String10AsciiValueD1Ev@Base 5.0.2
 _ZN2v86String10AsciiValueD2Ev@Base 5.0.2
 _ZN2v86String11ComputeHashEPci@Base 5.0.2
 _ZN2v86String11ComputeHashEPti@Base 5.0.2
 _ZN2v86String11NewExternalEPNS0_22ExternalStringResourceE@Base 5.0.2
 _ZN2v86String11NewExternalEPNS0_27ExternalAsciiStringResourceE@Base 5.0.2
 _ZN2v86String12MakeExternalEPNS0_22ExternalStringResourceE@Base 5.0.2
 _ZN2v86String12MakeExternalEPNS0_27ExternalAsciiStringResourceE@Base 5.0.2
 _ZN2v86String15CanMakeExternalEv@Base 5.0.2
 _ZN2v86String15NewUndetectableEPKci@Base 5.0.2
 _ZN2v86String15NewUndetectableEPKti@Base 5.0.2
 _ZN2v86String3NewEPKci@Base 5.0.2
 _ZN2v86String3NewEPKti@Base 5.0.2
 _ZN2v86String5EmptyEv@Base 5.0.2
 _ZN2v86String5ValueC1ENS_6HandleINS_5ValueEEE@Base 5.0.2
 _ZN2v86String5ValueC2ENS_6HandleINS_5ValueEEE@Base 5.0.2
 _ZN2v86String5ValueD1Ev@Base 5.0.2
 _ZN2v86String5ValueD2Ev@Base 5.0.2
 _ZN2v86String6ConcatENS_6HandleIS0_EES2_@Base 5.0.2
 _ZN2v86String9CheckCastEPNS_5ValueE@Base 5.0.2
 _ZN2v86String9NewSymbolEPKci@Base 5.0.2
 _ZN2v86String9Utf8ValueC1ENS_6HandleINS_5ValueEEE@Base 5.0.2
 _ZN2v86String9Utf8ValueC2ENS_6HandleINS_5ValueEEE@Base 5.0.2
 _ZN2v86String9Utf8ValueD1Ev@Base 5.0.2
 _ZN2v86String9Utf8ValueD2Ev@Base 5.0.2
 _ZN2v87Context10GetCallingEv@Base 5.0.2
 _ZN2v87Context10GetCurrentEv@Base 5.0.2
 _ZN2v87Context10GetEnteredEv@Base 5.0.2
 _ZN2v87Context12DetachGlobalEv@Base 5.0.2
 _ZN2v87Context14ReattachGlobalENS_6HandleINS_6ObjectEEE@Base 5.0.2
 _ZN2v87Context16GetSecurityTokenEv@Base 5.0.2
 _ZN2v87Context16SetSecurityTokenENS_6HandleINS_5ValueEEE@Base 5.0.2
 _ZN2v87Context19GetCallingQmlGlobalEv@Base 5.0.2
 _ZN2v87Context20GetCallingScriptDataEv@Base 5.0.2
 _ZN2v87Context23HasOutOfMemoryExceptionEv@Base 5.0.2
 _ZN2v87Context23UseDefaultSecurityTokenEv@Base 5.0.2
 _ZN2v87Context30AllowCodeGenerationFromStringsEb@Base 5.0.2
 _ZN2v87Context34IsCodeGenerationFromStringsAllowedEv@Base 5.0.2
 _ZN2v87Context3NewEPNS_22ExtensionConfigurationENS_6HandleINS_14ObjectTemplateEEENS3_INS_5ValueEEE@Base 5.0.2
 _ZN2v87Context43SetErrorMessageForCodeGenerationFromStringsENS_6HandleINS_6StringEEE@Base 5.1.0
 _ZN2v87Context4ExitEv@Base 5.0.2
 _ZN2v87Context5EnterEv@Base 5.0.2
 _ZN2v87Context6GlobalEv@Base 5.0.2
 _ZN2v87Context7GetDataEv@Base 5.0.2
 _ZN2v87Context7SetDataENS_6HandleINS_5ValueEEE@Base 5.1.0
 _ZN2v87Context9InContextEv@Base 5.0.2
 _ZN2v87Integer15NewFromUnsignedEj@Base 5.0.2
 _ZN2v87Integer15NewFromUnsignedEjPNS_7IsolateE@Base 5.1.0
 _ZN2v87Integer3NewEi@Base 5.0.2
 _ZN2v87Integer3NewEiPNS_7IsolateE@Base 5.1.0
 _ZN2v87Integer9CheckCastEPNS_5ValueE@Base 5.0.2
 _ZN2v87Isolate10GetCurrentEv@Base 5.0.2
 _ZN2v87Isolate3NewEv@Base 5.0.2
 _ZN2v87Isolate4ExitEv@Base 5.0.2
 _ZN2v87Isolate5EnterEv@Base 5.0.2
 _ZN2v87Isolate7DisposeEv@Base 5.0.2
 _ZN2v87Message22PrintCurrentStackTraceEP8_IO_FILE@Base 5.0.2
 _ZN2v87Testing13DeoptimizeAllEv@Base 5.0.2
 _ZN2v87Testing13GetStressRunsEv@Base 5.0.2
 _ZN2v87Testing16PrepareStressRunEi@Base 5.0.2
 _ZN2v87Testing16SetStressRunTypeENS0_10StressTypeE@Base 5.0.2
 _ZN2v88External10FullUnwrapENS_6HandleINS_5ValueEEE@Base 5.0.2
 _ZN2v88External3NewEPv@Base 5.0.2
 _ZN2v88External4WrapEPv@Base 5.0.2
 _ZN2v88External9CheckCastEPNS_5ValueE@Base 5.0.2
 _ZN2v88Function19kLineOffsetNotFoundE@Base 5.0.2
 _ZN2v88Function4CallENS_6HandleINS_6ObjectEEEiPNS1_INS_5ValueEEE@Base 5.0.2
 _ZN2v88Function7SetNameENS_6HandleINS_6StringEEE@Base 5.0.2
 _ZN2v88Function9CheckCastEPNS_5ValueE@Base 5.0.2
 _ZN2v88Template3SetENS_6HandleINS_6StringEEENS1_INS_4DataEEENS_17PropertyAttributeE@Base 5.0.2
 _ZN2v88TryCatch10SetVerboseEb@Base 5.0.2
 _ZN2v88TryCatch17SetCaptureMessageEb@Base 5.0.2
 _ZN2v88TryCatch5ResetEv@Base 5.0.2
 _ZN2v88TryCatch7ReThrowEv@Base 5.0.2
 _ZN2v88TryCatchC1Ev@Base 5.0.2
 _ZN2v88TryCatchC2Ev@Base 5.0.2
 _ZN2v88TryCatchD1Ev@Base 5.0.2
 _ZN2v88TryCatchD2Ev@Base 5.0.2
 _ZN2v88UnlockerC1EPNS_7IsolateE@Base 5.0.2
 _ZN2v88UnlockerC2EPNS_7IsolateE@Base 5.0.2
 _ZN2v88UnlockerD1Ev@Base 5.0.2
 _ZN2v88UnlockerD2Ev@Base 5.0.2
 _ZN2v89Exception10RangeErrorENS_6HandleINS_6StringEEE@Base 5.0.2
 _ZN2v89Exception11SyntaxErrorENS_6HandleINS_6StringEEE@Base 5.0.2
 _ZN2v89Exception14ReferenceErrorENS_6HandleINS_6StringEEE@Base 5.0.2
 _ZN2v89Exception5ErrorENS_6HandleINS_6StringEEE@Base 5.0.2
 _ZN2v89Exception9TypeErrorENS_6HandleINS_6StringEEE@Base 5.0.2
 _ZN2v89ExtensionC1EPKcS2_iPS2_i@Base 5.0.2
 _ZN2v89ExtensionC2EPKcS2_iPS2_i@Base 5.0.2
 _ZN2v89Signature3NewENS_6HandleINS_16FunctionTemplateEEEiPS3_@Base 5.0.2
 _ZN2v89UndefinedEv@Base 5.0.2
 _ZNK2v810CpuProfile14GetTopDownRootEv@Base 5.0.2
 _ZNK2v810CpuProfile15GetBottomUpRootEv@Base 5.0.2
 _ZNK2v810CpuProfile6GetUidEv@Base 5.0.2
 _ZNK2v810CpuProfile8GetTitleEv@Base 5.0.2
 _ZNK2v810StackFrame13GetLineNumberEv@Base 5.0.2
 _ZNK2v810StackFrame13GetScriptNameEv@Base 5.0.2
 _ZNK2v810StackFrame13IsConstructorEv@Base 5.0.2
 _ZNK2v810StackFrame15GetFunctionNameEv@Base 5.0.2
 _ZNK2v810StackFrame24GetScriptNameOrSourceURLEv@Base 5.0.2
 _ZNK2v810StackFrame6IsEvalEv@Base 5.0.2
 _ZNK2v810StackFrame9GetColumnEv@Base 5.0.2
 _ZNK2v810StackTrace13GetFrameCountEv@Base 5.0.2
 _ZNK2v810StackTrace8GetFrameEj@Base 5.0.2
 _ZNK2v812HeapSnapshot11GetNodeByIdEj@Base 5.0.2
 _ZNK2v812HeapSnapshot13GetNodesCountEv@Base 5.0.2
 _ZNK2v812HeapSnapshot24GetMaxSnapshotJSObjectIdEv@Base 5.0.2
 _ZNK2v812HeapSnapshot6GetUidEv@Base 5.0.2
 _ZNK2v812HeapSnapshot7GetNodeEi@Base 5.0.2
 _ZNK2v812HeapSnapshot7GetRootEv@Base 5.0.2
 _ZNK2v812HeapSnapshot7GetTypeEv@Base 5.0.2
 _ZNK2v812HeapSnapshot8GetTitleEv@Base 5.0.2
 _ZNK2v812HeapSnapshot9SerializeEPNS_12OutputStreamENS0_19SerializationFormatE@Base 5.0.2
 _ZNK2v812NumberObject11NumberValueEv@Base 5.0.2
 _ZNK2v812StringObject11StringValueEv@Base 5.0.2
 _ZNK2v813BooleanObject12BooleanValueEv@Base 5.0.2
 _ZNK2v813HeapGraphEdge11GetFromNodeEv@Base 5.0.2
 _ZNK2v813HeapGraphEdge7GetNameEv@Base 5.0.2
 _ZNK2v813HeapGraphEdge7GetTypeEv@Base 5.0.2
 _ZNK2v813HeapGraphEdge9GetToNodeEv@Base 5.0.2
 _ZNK2v813HeapGraphNode11GetSelfSizeEv@Base 5.0.2
 _ZNK2v813HeapGraphNode12GetHeapValueEv@Base 5.0.2
 _ZNK2v813HeapGraphNode16GetChildrenCountEv@Base 5.0.2
 _ZNK2v813HeapGraphNode5GetIdEv@Base 5.0.2
 _ZNK2v813HeapGraphNode7GetNameEv@Base 5.0.2
 _ZNK2v813HeapGraphNode7GetTypeEv@Base 5.0.2
 _ZNK2v813HeapGraphNode8GetChildEi@Base 5.0.2
 _ZNK2v814CpuProfileNode10GetCallUidEv@Base 5.0.2
 _ZNK2v814CpuProfileNode11GetSelfTimeEv@Base 5.0.2
 _ZNK2v814CpuProfileNode12GetTotalTimeEv@Base 5.0.2
 _ZNK2v814CpuProfileNode13GetLineNumberEv@Base 5.0.2
 _ZNK2v814CpuProfileNode15GetFunctionNameEv@Base 5.0.2
 _ZNK2v814CpuProfileNode16GetChildrenCountEv@Base 5.0.2
 _ZNK2v814CpuProfileNode19GetSelfSamplesCountEv@Base 5.0.2
 _ZNK2v814CpuProfileNode20GetTotalSamplesCountEv@Base 5.0.2
 _ZNK2v814CpuProfileNode21GetScriptResourceNameEv@Base 5.0.2
 _ZNK2v814CpuProfileNode8GetChildEi@Base 5.0.2
 _ZNK2v84Date11NumberValueEv@Base 5.0.2
 _ZNK2v85Array6LengthEv@Base 5.0.2
 _ZNK2v85Int325ValueEv@Base 5.0.2
 _ZNK2v85Value10FullIsNullEv@Base 5.0.2
 _ZNK2v85Value10Int32ValueEv@Base 5.0.2
 _ZNK2v85Value10IsExternalEv@Base 5.0.2
 _ZNK2v85Value10IsFunctionEv@Base 5.0.2
 _ZNK2v85Value11NumberValueEv@Base 5.0.2
 _ZNK2v85Value11Uint32ValueEv@Base 5.0.2
 _ZNK2v85Value12BooleanValueEv@Base 5.0.2
 _ZNK2v85Value12FullIsStringEv@Base 5.0.2
 _ZNK2v85Value12IntegerValueEv@Base 5.0.2
 _ZNK2v85Value12StrictEqualsENS_6HandleIS0_EE@Base 5.0.2
 _ZNK2v85Value12ToArrayIndexEv@Base 5.0.2
 _ZNK2v85Value13IsNativeErrorEv@Base 5.0.2
 _ZNK2v85Value14IsNumberObjectEv@Base 5.0.2
 _ZNK2v85Value14IsStringObjectEv@Base 5.0.2
 _ZNK2v85Value14ToDetailStringEv@Base 5.0.2
 _ZNK2v85Value15FullIsUndefinedEv@Base 5.0.2
 _ZNK2v85Value15IsBooleanObjectEv@Base 5.0.2
 _ZNK2v85Value6EqualsENS_6HandleIS0_EE@Base 5.0.2
 _ZNK2v85Value6IsDateEv@Base 5.0.2
 _ZNK2v85Value6IsTrueEv@Base 5.0.2
 _ZNK2v85Value7IsArrayEv@Base 5.0.2
 _ZNK2v85Value7IsErrorEv@Base 5.0.2
 _ZNK2v85Value7IsFalseEv@Base 5.0.2
 _ZNK2v85Value7IsInt32Ev@Base 5.0.2
 _ZNK2v85Value7ToInt32Ev@Base 5.0.2
 _ZNK2v85Value8IsNumberEv@Base 5.0.2
 _ZNK2v85Value8IsObjectEv@Base 5.0.2
 _ZNK2v85Value8IsRegExpEv@Base 5.0.2
 _ZNK2v85Value8IsUint32Ev@Base 5.0.2
 _ZNK2v85Value8ToNumberEv@Base 5.0.2
 _ZNK2v85Value8ToObjectEv@Base 5.0.2
 _ZNK2v85Value8ToStringEv@Base 5.0.2
 _ZNK2v85Value8ToUint32Ev@Base 5.0.2
 _ZNK2v85Value9IsBooleanEv@Base 5.0.2
 _ZNK2v85Value9ToBooleanEv@Base 5.0.2
 _ZNK2v85Value9ToIntegerEv@Base 5.0.2
 _ZNK2v86Number5ValueEv@Base 5.0.2
 _ZNK2v86RegExp8GetFlagsEv@Base 5.0.2
 _ZNK2v86RegExp9GetSourceEv@Base 5.0.2
 _ZNK2v86String10IsExternalEv@Base 5.0.2
 _ZNK2v86String10Utf8LengthEv@Base 5.0.2
 _ZNK2v86String10WriteAsciiEPciii@Base 5.0.2
 _ZNK2v86String12CompleteHashEv@Base 5.0.2
 _ZNK2v86String15IsExternalAsciiEv@Base 5.0.2
 _ZNK2v86String18MayContainNonAsciiEv@Base 5.0.2
 _ZNK2v86String28VerifyExternalStringResourceEPNS0_22ExternalStringResourceE@Base 5.0.2
 _ZNK2v86String30GetExternalAsciiStringResourceEv@Base 5.0.2
 _ZNK2v86String32VerifyExternalStringResourceBaseEPNS0_26ExternalStringResourceBaseENS0_8EncodingE@Base 5.1.0
 _ZNK2v86String4HashEv@Base 5.0.2
 _ZNK2v86String5WriteEPtiii@Base 5.0.2
 _ZNK2v86String6LengthEv@Base 5.0.2
 _ZNK2v86String9WriteUtf8EPciPii@Base 5.0.2
 _ZNK2v86Uint325ValueEv@Base 5.0.2
 _ZNK2v87Boolean5ValueEv@Base 5.0.2
 _ZNK2v87Integer5ValueEv@Base 5.0.2
 _ZNK2v87Message12GetEndColumnEv@Base 5.0.2
 _ZNK2v87Message13GetLineNumberEv@Base 5.0.2
 _ZNK2v87Message13GetScriptDataEv@Base 5.0.2
 _ZNK2v87Message13GetSourceLineEv@Base 5.0.2
 _ZNK2v87Message13GetStackTraceEv@Base 5.0.2
 _ZNK2v87Message14GetEndPositionEv@Base 5.0.2
 _ZNK2v87Message14GetStartColumnEv@Base 5.0.2
 _ZNK2v87Message16GetStartPositionEv@Base 5.0.2
 _ZNK2v87Message21GetScriptResourceNameEv@Base 5.0.2
 _ZNK2v87Message3GetEv@Base 5.0.2
 _ZNK2v88External5ValueEv@Base 5.0.2
 _ZNK2v88Function11GetScriptIdEv@Base 5.0.2
 _ZNK2v88Function11NewInstanceEiPNS_6HandleINS_5ValueEEE@Base 5.0.2
 _ZNK2v88Function11NewInstanceEv@Base 5.0.2
 _ZNK2v88Function15GetInferredNameEv@Base 5.0.2
 _ZNK2v88Function15GetScriptOriginEv@Base 5.0.2
 _ZNK2v88Function19GetScriptLineNumberEv@Base 5.0.2
 _ZNK2v88Function21GetScriptColumnNumberEv@Base 5.0.2
 _ZNK2v88Function7GetNameEv@Base 5.0.2
 _ZNK2v88TryCatch10StackTraceEv@Base 5.0.2
 _ZNK2v88TryCatch11CanContinueEv@Base 5.0.2
 _ZNK2v88TryCatch7MessageEv@Base 5.0.2
 _ZNK2v88TryCatch9ExceptionEv@Base 5.0.2
 _ZNK2v88TryCatch9HasCaughtEv@Base 5.0.2
 _ZTIN2v810ScriptDataE@Base 5.0.2
 _ZTIN2v818RetainedObjectInfoE@Base 5.0.2
 _ZTIN2v823StartupDataDecompressorE@Base 5.0.2
 _ZTIN2v831ExternalAsciiStringResourceImplE@Base 5.0.2
 _ZTIN2v85Debug12EventDetailsE@Base 5.0.2
 _ZTIN2v85Debug7MessageE@Base 5.0.2
 _ZTIN2v86String22ExternalStringResourceE@Base 5.0.2
 _ZTIN2v86String26ExternalStringResourceBaseE@Base 5.0.2
 _ZTIN2v86String27ExternalAsciiStringResourceE@Base 5.0.2
 _ZTIN2v89ExtensionE@Base 5.0.2
 _ZTSN2v810ScriptDataE@Base 5.0.2
 _ZTSN2v818RetainedObjectInfoE@Base 5.0.2
 _ZTSN2v823StartupDataDecompressorE@Base 5.0.2
 _ZTSN2v831ExternalAsciiStringResourceImplE@Base 5.0.2
 _ZTSN2v85Debug12EventDetailsE@Base 5.0.2
 _ZTSN2v85Debug7MessageE@Base 5.0.2
 _ZTSN2v86String22ExternalStringResourceE@Base 5.0.2
 _ZTSN2v86String26ExternalStringResourceBaseE@Base 5.0.2
 _ZTSN2v86String27ExternalAsciiStringResourceE@Base 5.0.2
 _ZTSN2v89ExtensionE@Base 5.0.2
 _ZTVN2v810ScriptDataE@Base 5.0.2
 _ZTVN2v818RetainedObjectInfoE@Base 5.0.2
 _ZTVN2v823StartupDataDecompressorE@Base 5.0.2
 _ZTVN2v831ExternalAsciiStringResourceImplE@Base 5.0.2
 _ZTVN2v85Debug12EventDetailsE@Base 5.0.2
 _ZTVN2v85Debug7MessageE@Base 5.0.2
 _ZTVN2v86String22ExternalStringResourceE@Base 5.0.2
 _ZTVN2v86String26ExternalStringResourceBaseE@Base 5.0.2
 _ZTVN2v86String27ExternalAsciiStringResourceE@Base 5.0.2
 _ZTVN2v89ExtensionE@Base 5.0.2
